; ModuleID = 'C:/Users/marti/Documents/GitHub/Embedded-Systems-Course/project/equalizer/equalizer/.autopilot/db/a.g.bc'
target datalayout = "e-p:32:32:32-i1:8:8-i8:8:8-i16:16:16-i32:32:32-i64:64:64-f32:32:32-f64:64:64-f80:128:128-v64:64:64-v128:128:128-a0:0:64-f80:32:32-n8:16:32-S32"
target triple = "i686-pc-mingw32"

%class.IIRFilter = type { [5 x [3 x float]], [5 x [3 x float]], [5 x [6 x float]] }

@.str = private unnamed_addr constant [10 x i8] c"s_axilite\00", align 1 ; [#uses=1 type=[10 x i8]*]
@.str1 = private unnamed_addr constant [1 x i8] zeroinitializer, align 1 ; [#uses=1 type=[1 x i8]*]
@.str2 = private unnamed_addr constant [6 x i8] c"eq_io\00", align 1 ; [#uses=1 type=[6 x i8]*]
@_ZZ9equalizerPffiPA6_fE3iir = internal global %class.IIRFilter zeroinitializer, align 4 ; [#uses=3 type=%class.IIRFilter*]
@_ZGVZ9equalizerPffiPA6_fE3iir = internal global i8 0 ; [#uses=2 type=i8*]
@.str3 = private unnamed_addr constant [15 x i8] c"setCoeffs_loop\00", align 1 ; [#uses=1 type=[15 x i8]*]
@.str4 = private unnamed_addr constant [12 x i8] c"filter_loop\00", align 1 ; [#uses=1 type=[12 x i8]*]

; [#uses=0]
define void @_Z9equalizerPffiPA6_f(float* %y, float %x, i32 %mode, [6 x float]* %coeffs) nounwind {
  %1 = alloca float*, align 4                     ; [#uses=3 type=float**]
  %2 = alloca float, align 4                      ; [#uses=3 type=float*]
  %3 = alloca i32, align 4                        ; [#uses=3 type=i32*]
  %4 = alloca [6 x float]*, align 4               ; [#uses=4 type=[6 x float]**]
  store float* %y, float** %1, align 4
  call void @llvm.dbg.declare(metadata !{float** %1}, metadata !72), !dbg !73 ; [debug line = 3:24] [debug variable = y]
  store float %x, float* %2, align 4
  call void @llvm.dbg.declare(metadata !{float* %2}, metadata !74), !dbg !75 ; [debug line = 3:34] [debug variable = x]
  store i32 %mode, i32* %3, align 4
  call void @llvm.dbg.declare(metadata !{i32* %3}, metadata !76), !dbg !77 ; [debug line = 3:41] [debug variable = mode]
  store [6 x float]* %coeffs, [6 x float]** %4, align 4
  call void @llvm.dbg.declare(metadata !{[6 x float]** %4}, metadata !78), !dbg !79 ; [debug line = 3:54] [debug variable = coeffs]
  %5 = load [6 x float]** %4, align 4, !dbg !80   ; [#uses=1 type=[6 x float]*] [debug line = 3:75]
  call void (...)* @_ssdm_SpecArrayDimSize([6 x float]* %5, i32 5) nounwind, !dbg !80 ; [debug line = 3:75]
  %6 = load [6 x float]** %4, align 4, !dbg !82   ; [#uses=1 type=[6 x float]*] [debug line = 4:1]
  call void (...)* @_ssdm_op_SpecInterface([6 x float]* %6, i8* getelementptr inbounds ([10 x i8]* @.str, i32 0, i32 0), i32 0, i32 0, i8* getelementptr inbounds ([1 x i8]* @.str1, i32 0, i32 0), i32 0, i32 0, i8* getelementptr inbounds ([6 x i8]* @.str2, i32 0, i32 0), i8* getelementptr inbounds ([1 x i8]* @.str1, i32 0, i32 0), i8* getelementptr inbounds ([1 x i8]* @.str1, i32 0, i32 0), i32 0, i32 0, i32 0, i32 0, i8* getelementptr inbounds ([1 x i8]* @.str1, i32 0, i32 0), i8* getelementptr inbounds ([1 x i8]* @.str1, i32 0, i32 0)) nounwind, !dbg !82 ; [debug line = 4:1]
  %7 = load i32* %3, align 4, !dbg !82            ; [#uses=1 type=i32] [debug line = 4:1]
  call void (...)* @_ssdm_op_SpecInterface(i32 %7, i8* getelementptr inbounds ([10 x i8]* @.str, i32 0, i32 0), i32 0, i32 0, i8* getelementptr inbounds ([1 x i8]* @.str1, i32 0, i32 0), i32 0, i32 0, i8* getelementptr inbounds ([6 x i8]* @.str2, i32 0, i32 0), i8* getelementptr inbounds ([1 x i8]* @.str1, i32 0, i32 0), i8* getelementptr inbounds ([1 x i8]* @.str1, i32 0, i32 0), i32 0, i32 0, i32 0, i32 0, i8* getelementptr inbounds ([1 x i8]* @.str1, i32 0, i32 0), i8* getelementptr inbounds ([1 x i8]* @.str1, i32 0, i32 0)) nounwind, !dbg !82 ; [debug line = 4:1]
  %8 = load float* %2, align 4, !dbg !82          ; [#uses=1 type=float] [debug line = 4:1]
  %9 = fpext float %8 to double, !dbg !82         ; [#uses=1 type=double] [debug line = 4:1]
  call void (...)* @_ssdm_op_SpecInterface(double %9, i8* getelementptr inbounds ([10 x i8]* @.str, i32 0, i32 0), i32 0, i32 0, i8* getelementptr inbounds ([1 x i8]* @.str1, i32 0, i32 0), i32 0, i32 0, i8* getelementptr inbounds ([6 x i8]* @.str2, i32 0, i32 0), i8* getelementptr inbounds ([1 x i8]* @.str1, i32 0, i32 0), i8* getelementptr inbounds ([1 x i8]* @.str1, i32 0, i32 0), i32 0, i32 0, i32 0, i32 0, i8* getelementptr inbounds ([1 x i8]* @.str1, i32 0, i32 0), i8* getelementptr inbounds ([1 x i8]* @.str1, i32 0, i32 0)) nounwind, !dbg !82 ; [debug line = 4:1]
  call void (...)* @_ssdm_op_SpecInterface(i32 0, i8* getelementptr inbounds ([10 x i8]* @.str, i32 0, i32 0), i32 0, i32 0, i8* getelementptr inbounds ([1 x i8]* @.str1, i32 0, i32 0), i32 0, i32 0, i8* getelementptr inbounds ([6 x i8]* @.str2, i32 0, i32 0), i8* getelementptr inbounds ([1 x i8]* @.str1, i32 0, i32 0), i8* getelementptr inbounds ([1 x i8]* @.str1, i32 0, i32 0), i32 0, i32 0, i32 0, i32 0, i8* getelementptr inbounds ([1 x i8]* @.str1, i32 0, i32 0), i8* getelementptr inbounds ([1 x i8]* @.str1, i32 0, i32 0)) nounwind, !dbg !82 ; [debug line = 4:1]
  %10 = load float** %1, align 4, !dbg !82        ; [#uses=1 type=float*] [debug line = 4:1]
  call void (...)* @_ssdm_op_SpecInterface(float* %10, i8* getelementptr inbounds ([10 x i8]* @.str, i32 0, i32 0), i32 0, i32 0, i8* getelementptr inbounds ([1 x i8]* @.str1, i32 0, i32 0), i32 0, i32 0, i8* getelementptr inbounds ([6 x i8]* @.str2, i32 0, i32 0), i8* getelementptr inbounds ([1 x i8]* @.str1, i32 0, i32 0), i8* getelementptr inbounds ([1 x i8]* @.str1, i32 0, i32 0), i32 0, i32 0, i32 0, i32 0, i8* getelementptr inbounds ([1 x i8]* @.str1, i32 0, i32 0), i8* getelementptr inbounds ([1 x i8]* @.str1, i32 0, i32 0)) nounwind, !dbg !82 ; [debug line = 4:1]
  %11 = load i8* @_ZGVZ9equalizerPffiPA6_fE3iir, align 1, !dbg !83 ; [#uses=1 type=i8] [debug line = 4:23]
  %12 = icmp eq i8 %11, 0, !dbg !83               ; [#uses=1 type=i1] [debug line = 4:23]
  br i1 %12, label %13, label %14, !dbg !83       ; [debug line = 4:23]

; <label>:13                                      ; preds = %0
  call void @_ZN9IIRFilterC1Ev(%class.IIRFilter* @_ZZ9equalizerPffiPA6_fE3iir), !dbg !83 ; [debug line = 4:23]
  store i8 1, i8* @_ZGVZ9equalizerPffiPA6_fE3iir, !dbg !83 ; [debug line = 4:23]
  br label %14, !dbg !83                          ; [debug line = 4:23]

; <label>:14                                      ; preds = %13, %0
  %15 = load i32* %3, align 4, !dbg !84           ; [#uses=1 type=i32] [debug line = 5:3]
  %16 = icmp eq i32 %15, 1, !dbg !84              ; [#uses=1 type=i1] [debug line = 5:3]
  br i1 %16, label %17, label %21, !dbg !84       ; [debug line = 5:3]

; <label>:17                                      ; preds = %14
  %18 = load float* %2, align 4, !dbg !85         ; [#uses=1 type=float] [debug line = 6:9]
  %19 = call float @_ZN9IIRFilter6filterEf(%class.IIRFilter* @_ZZ9equalizerPffiPA6_fE3iir, float %18), !dbg !85 ; [#uses=1 type=float] [debug line = 6:9]
  %20 = load float** %1, align 4, !dbg !85        ; [#uses=1 type=float*] [debug line = 6:9]
  store float %19, float* %20, align 4, !dbg !85  ; [debug line = 6:9]
  br label %23, !dbg !85                          ; [debug line = 6:9]

; <label>:21                                      ; preds = %14
  %22 = load [6 x float]** %4, align 4, !dbg !86  ; [#uses=1 type=[6 x float]*] [debug line = 8:4]
  call void @_ZN9IIRFilter9setCoeffsEPA6_f(%class.IIRFilter* @_ZZ9equalizerPffiPA6_fE3iir, [6 x float]* %22), !dbg !86 ; [debug line = 8:4]
  br label %23

; <label>:23                                      ; preds = %21, %17
  ret void, !dbg !88                              ; [debug line = 10:1]
}

; [#uses=25]
declare void @llvm.dbg.declare(metadata, metadata) nounwind readnone

; [#uses=2]
declare void @_ssdm_SpecArrayDimSize(...) nounwind

; [#uses=5]
declare void @_ssdm_op_SpecInterface(...) nounwind

; [#uses=1]
define linkonce_odr void @_ZN9IIRFilterC1Ev(%class.IIRFilter* %this) unnamed_addr nounwind align 2 {
  %1 = alloca %class.IIRFilter*, align 4          ; [#uses=2 type=%class.IIRFilter**]
  store %class.IIRFilter* %this, %class.IIRFilter** %1, align 4
  call void @llvm.dbg.declare(metadata !{%class.IIRFilter** %1}, metadata !89), !dbg !91 ; [debug line = 13:2] [debug variable = this]
  %2 = load %class.IIRFilter** %1                 ; [#uses=1 type=%class.IIRFilter*]
  call void @_ZN9IIRFilterC2Ev(%class.IIRFilter* %2), !dbg !92 ; [debug line = 23:2]
  ret void, !dbg !92                              ; [debug line = 23:2]
}

; [#uses=1]
define linkonce_odr float @_ZN9IIRFilter6filterEf(%class.IIRFilter* %this, float %input) nounwind align 2 {
  %1 = alloca %class.IIRFilter*, align 4          ; [#uses=2 type=%class.IIRFilter**]
  %2 = alloca float, align 4                      ; [#uses=2 type=float*]
  %b0 = alloca float, align 4                     ; [#uses=2 type=float*]
  %b1 = alloca float, align 4                     ; [#uses=2 type=float*]
  %b2 = alloca float, align 4                     ; [#uses=2 type=float*]
  %a1 = alloca float, align 4                     ; [#uses=2 type=float*]
  %a2 = alloca float, align 4                     ; [#uses=2 type=float*]
  %a0 = alloca float, align 4                     ; [#uses=6 type=float*]
  %temp = alloca float, align 4                   ; [#uses=4 type=float*]
  %acc = alloca float, align 4                    ; [#uses=2 type=float*]
  %i = alloca i32, align 4                        ; [#uses=26 type=i32*]
  store %class.IIRFilter* %this, %class.IIRFilter** %1, align 4
  call void @llvm.dbg.declare(metadata !{%class.IIRFilter** %1}, metadata !93), !dbg !94 ; [debug line = 31:9] [debug variable = this]
  store float %input, float* %2, align 4
  call void @llvm.dbg.declare(metadata !{float* %2}, metadata !95), !dbg !96 ; [debug line = 31:23] [debug variable = input]
  %3 = load %class.IIRFilter** %1                 ; [#uses=22 type=%class.IIRFilter*]
  call void @llvm.dbg.declare(metadata !{float* %b0}, metadata !97), !dbg !99 ; [debug line = 32:10] [debug variable = b0]
  call void @llvm.dbg.declare(metadata !{float* %b1}, metadata !100), !dbg !101 ; [debug line = 32:14] [debug variable = b1]
  call void @llvm.dbg.declare(metadata !{float* %b2}, metadata !102), !dbg !103 ; [debug line = 32:18] [debug variable = b2]
  call void @llvm.dbg.declare(metadata !{float* %a1}, metadata !104), !dbg !105 ; [debug line = 32:22] [debug variable = a1]
  call void @llvm.dbg.declare(metadata !{float* %a2}, metadata !106), !dbg !107 ; [debug line = 32:26] [debug variable = a2]
  call void @llvm.dbg.declare(metadata !{float* %a0}, metadata !108), !dbg !109 ; [debug line = 32:30] [debug variable = a0]
  call void @llvm.dbg.declare(metadata !{float* %temp}, metadata !110), !dbg !111 ; [debug line = 32:34] [debug variable = temp]
  %4 = load float* %2, align 4, !dbg !112         ; [#uses=1 type=float] [debug line = 32:51]
  store float %4, float* %temp, align 4, !dbg !112 ; [debug line = 32:51]
  call void @llvm.dbg.declare(metadata !{float* %acc}, metadata !113), !dbg !114 ; [debug line = 32:48] [debug variable = acc]
  br label %5, !dbg !112                          ; [debug line = 32:51]

; <label>:5                                       ; preds = %0
  call void @llvm.dbg.declare(metadata !{i32* %i}, metadata !115), !dbg !117 ; [debug line = 34:23] [debug variable = i]
  store i32 0, i32* %i, align 4, !dbg !118        ; [debug line = 34:26]
  br label %6, !dbg !118                          ; [debug line = 34:26]

; <label>:6                                       ; preds = %140, %5
  %7 = load i32* %i, align 4, !dbg !118           ; [#uses=1 type=i32] [debug line = 34:26]
  %8 = icmp slt i32 %7, 5, !dbg !118              ; [#uses=1 type=i1] [debug line = 34:26]
  br i1 %8, label %9, label %143, !dbg !118       ; [debug line = 34:26]

; <label>:9                                       ; preds = %6
  call void (...)* @_ssdm_op_SpecLoopName(i8* getelementptr inbounds ([12 x i8]* @.str4, i32 0, i32 0)) nounwind, !dbg !119 ; [debug line = 34:45]
  call void (...)* @_ssdm_RegionBegin(i8* getelementptr inbounds ([12 x i8]* @.str4, i32 0, i32 0)) nounwind, !dbg !119 ; [debug line = 34:45]
  %10 = load i32* %i, align 4, !dbg !121          ; [#uses=1 type=i32] [debug line = 36:4]
  %11 = getelementptr inbounds %class.IIRFilter* %3, i32 0, i32 2, !dbg !121 ; [#uses=1 type=[5 x [6 x float]]*] [debug line = 36:4]
  %12 = getelementptr inbounds [5 x [6 x float]]* %11, i32 0, i32 %10, !dbg !121 ; [#uses=1 type=[6 x float]*] [debug line = 36:4]
  %13 = getelementptr inbounds [6 x float]* %12, i32 0, i32 0, !dbg !121 ; [#uses=1 type=float*] [debug line = 36:4]
  %14 = load float* %13, align 4, !dbg !121       ; [#uses=1 type=float] [debug line = 36:4]
  store float %14, float* %b0, align 4, !dbg !121 ; [debug line = 36:4]
  %15 = load i32* %i, align 4, !dbg !122          ; [#uses=1 type=i32] [debug line = 37:4]
  %16 = getelementptr inbounds %class.IIRFilter* %3, i32 0, i32 2, !dbg !122 ; [#uses=1 type=[5 x [6 x float]]*] [debug line = 37:4]
  %17 = getelementptr inbounds [5 x [6 x float]]* %16, i32 0, i32 %15, !dbg !122 ; [#uses=1 type=[6 x float]*] [debug line = 37:4]
  %18 = getelementptr inbounds [6 x float]* %17, i32 0, i32 1, !dbg !122 ; [#uses=1 type=float*] [debug line = 37:4]
  %19 = load float* %18, align 4, !dbg !122       ; [#uses=1 type=float] [debug line = 37:4]
  store float %19, float* %b1, align 4, !dbg !122 ; [debug line = 37:4]
  %20 = load i32* %i, align 4, !dbg !123          ; [#uses=1 type=i32] [debug line = 38:4]
  %21 = getelementptr inbounds %class.IIRFilter* %3, i32 0, i32 2, !dbg !123 ; [#uses=1 type=[5 x [6 x float]]*] [debug line = 38:4]
  %22 = getelementptr inbounds [5 x [6 x float]]* %21, i32 0, i32 %20, !dbg !123 ; [#uses=1 type=[6 x float]*] [debug line = 38:4]
  %23 = getelementptr inbounds [6 x float]* %22, i32 0, i32 2, !dbg !123 ; [#uses=1 type=float*] [debug line = 38:4]
  %24 = load float* %23, align 4, !dbg !123       ; [#uses=1 type=float] [debug line = 38:4]
  store float %24, float* %b2, align 4, !dbg !123 ; [debug line = 38:4]
  %25 = load i32* %i, align 4, !dbg !124          ; [#uses=1 type=i32] [debug line = 39:4]
  %26 = getelementptr inbounds %class.IIRFilter* %3, i32 0, i32 2, !dbg !124 ; [#uses=1 type=[5 x [6 x float]]*] [debug line = 39:4]
  %27 = getelementptr inbounds [5 x [6 x float]]* %26, i32 0, i32 %25, !dbg !124 ; [#uses=1 type=[6 x float]*] [debug line = 39:4]
  %28 = getelementptr inbounds [6 x float]* %27, i32 0, i32 3, !dbg !124 ; [#uses=1 type=float*] [debug line = 39:4]
  %29 = load float* %28, align 4, !dbg !124       ; [#uses=1 type=float] [debug line = 39:4]
  store float %29, float* %a0, align 4, !dbg !124 ; [debug line = 39:4]
  %30 = load i32* %i, align 4, !dbg !125          ; [#uses=1 type=i32] [debug line = 40:4]
  %31 = getelementptr inbounds %class.IIRFilter* %3, i32 0, i32 2, !dbg !125 ; [#uses=1 type=[5 x [6 x float]]*] [debug line = 40:4]
  %32 = getelementptr inbounds [5 x [6 x float]]* %31, i32 0, i32 %30, !dbg !125 ; [#uses=1 type=[6 x float]*] [debug line = 40:4]
  %33 = getelementptr inbounds [6 x float]* %32, i32 0, i32 4, !dbg !125 ; [#uses=1 type=float*] [debug line = 40:4]
  %34 = load float* %33, align 4, !dbg !125       ; [#uses=1 type=float] [debug line = 40:4]
  store float %34, float* %a1, align 4, !dbg !125 ; [debug line = 40:4]
  %35 = load i32* %i, align 4, !dbg !126          ; [#uses=1 type=i32] [debug line = 41:4]
  %36 = getelementptr inbounds %class.IIRFilter* %3, i32 0, i32 2, !dbg !126 ; [#uses=1 type=[5 x [6 x float]]*] [debug line = 41:4]
  %37 = getelementptr inbounds [5 x [6 x float]]* %36, i32 0, i32 %35, !dbg !126 ; [#uses=1 type=[6 x float]*] [debug line = 41:4]
  %38 = getelementptr inbounds [6 x float]* %37, i32 0, i32 5, !dbg !126 ; [#uses=1 type=float*] [debug line = 41:4]
  %39 = load float* %38, align 4, !dbg !126       ; [#uses=1 type=float] [debug line = 41:4]
  store float %39, float* %a2, align 4, !dbg !126 ; [debug line = 41:4]
  %40 = load i32* %i, align 4, !dbg !127          ; [#uses=1 type=i32] [debug line = 43:4]
  %41 = getelementptr inbounds %class.IIRFilter* %3, i32 0, i32 0, !dbg !127 ; [#uses=1 type=[5 x [3 x float]]*] [debug line = 43:4]
  %42 = getelementptr inbounds [5 x [3 x float]]* %41, i32 0, i32 %40, !dbg !127 ; [#uses=1 type=[3 x float]*] [debug line = 43:4]
  %43 = getelementptr inbounds [3 x float]* %42, i32 0, i32 1, !dbg !127 ; [#uses=1 type=float*] [debug line = 43:4]
  %44 = load float* %43, align 4, !dbg !127       ; [#uses=1 type=float] [debug line = 43:4]
  %45 = load i32* %i, align 4, !dbg !127          ; [#uses=1 type=i32] [debug line = 43:4]
  %46 = getelementptr inbounds %class.IIRFilter* %3, i32 0, i32 0, !dbg !127 ; [#uses=1 type=[5 x [3 x float]]*] [debug line = 43:4]
  %47 = getelementptr inbounds [5 x [3 x float]]* %46, i32 0, i32 %45, !dbg !127 ; [#uses=1 type=[3 x float]*] [debug line = 43:4]
  %48 = getelementptr inbounds [3 x float]* %47, i32 0, i32 2, !dbg !127 ; [#uses=1 type=float*] [debug line = 43:4]
  store float %44, float* %48, align 4, !dbg !127 ; [debug line = 43:4]
  %49 = load i32* %i, align 4, !dbg !128          ; [#uses=1 type=i32] [debug line = 44:4]
  %50 = getelementptr inbounds %class.IIRFilter* %3, i32 0, i32 0, !dbg !128 ; [#uses=1 type=[5 x [3 x float]]*] [debug line = 44:4]
  %51 = getelementptr inbounds [5 x [3 x float]]* %50, i32 0, i32 %49, !dbg !128 ; [#uses=1 type=[3 x float]*] [debug line = 44:4]
  %52 = getelementptr inbounds [3 x float]* %51, i32 0, i32 0, !dbg !128 ; [#uses=1 type=float*] [debug line = 44:4]
  %53 = load float* %52, align 4, !dbg !128       ; [#uses=1 type=float] [debug line = 44:4]
  %54 = load i32* %i, align 4, !dbg !128          ; [#uses=1 type=i32] [debug line = 44:4]
  %55 = getelementptr inbounds %class.IIRFilter* %3, i32 0, i32 0, !dbg !128 ; [#uses=1 type=[5 x [3 x float]]*] [debug line = 44:4]
  %56 = getelementptr inbounds [5 x [3 x float]]* %55, i32 0, i32 %54, !dbg !128 ; [#uses=1 type=[3 x float]*] [debug line = 44:4]
  %57 = getelementptr inbounds [3 x float]* %56, i32 0, i32 1, !dbg !128 ; [#uses=1 type=float*] [debug line = 44:4]
  store float %53, float* %57, align 4, !dbg !128 ; [debug line = 44:4]
  %58 = load float* %temp, align 4, !dbg !129     ; [#uses=1 type=float] [debug line = 45:4]
  %59 = load i32* %i, align 4, !dbg !129          ; [#uses=1 type=i32] [debug line = 45:4]
  %60 = getelementptr inbounds %class.IIRFilter* %3, i32 0, i32 0, !dbg !129 ; [#uses=1 type=[5 x [3 x float]]*] [debug line = 45:4]
  %61 = getelementptr inbounds [5 x [3 x float]]* %60, i32 0, i32 %59, !dbg !129 ; [#uses=1 type=[3 x float]*] [debug line = 45:4]
  %62 = getelementptr inbounds [3 x float]* %61, i32 0, i32 0, !dbg !129 ; [#uses=1 type=float*] [debug line = 45:4]
  store float %58, float* %62, align 4, !dbg !129 ; [debug line = 45:4]
  %63 = load float* %b0, align 4, !dbg !130       ; [#uses=1 type=float] [debug line = 47:4]
  %64 = load i32* %i, align 4, !dbg !130          ; [#uses=1 type=i32] [debug line = 47:4]
  %65 = getelementptr inbounds %class.IIRFilter* %3, i32 0, i32 0, !dbg !130 ; [#uses=1 type=[5 x [3 x float]]*] [debug line = 47:4]
  %66 = getelementptr inbounds [5 x [3 x float]]* %65, i32 0, i32 %64, !dbg !130 ; [#uses=1 type=[3 x float]*] [debug line = 47:4]
  %67 = getelementptr inbounds [3 x float]* %66, i32 0, i32 0, !dbg !130 ; [#uses=1 type=float*] [debug line = 47:4]
  %68 = load float* %67, align 4, !dbg !130       ; [#uses=1 type=float] [debug line = 47:4]
  %69 = fmul float %63, %68, !dbg !130            ; [#uses=1 type=float] [debug line = 47:4]
  %70 = load float* %a0, align 4, !dbg !130       ; [#uses=1 type=float] [debug line = 47:4]
  %71 = fdiv float %69, %70, !dbg !130            ; [#uses=1 type=float] [debug line = 47:4]
  %72 = load float* %b1, align 4, !dbg !130       ; [#uses=1 type=float] [debug line = 47:4]
  %73 = load i32* %i, align 4, !dbg !130          ; [#uses=1 type=i32] [debug line = 47:4]
  %74 = getelementptr inbounds %class.IIRFilter* %3, i32 0, i32 0, !dbg !130 ; [#uses=1 type=[5 x [3 x float]]*] [debug line = 47:4]
  %75 = getelementptr inbounds [5 x [3 x float]]* %74, i32 0, i32 %73, !dbg !130 ; [#uses=1 type=[3 x float]*] [debug line = 47:4]
  %76 = getelementptr inbounds [3 x float]* %75, i32 0, i32 1, !dbg !130 ; [#uses=1 type=float*] [debug line = 47:4]
  %77 = load float* %76, align 4, !dbg !130       ; [#uses=1 type=float] [debug line = 47:4]
  %78 = fmul float %72, %77, !dbg !130            ; [#uses=1 type=float] [debug line = 47:4]
  %79 = load float* %a0, align 4, !dbg !130       ; [#uses=1 type=float] [debug line = 47:4]
  %80 = fdiv float %78, %79, !dbg !130            ; [#uses=1 type=float] [debug line = 47:4]
  %81 = fadd float %71, %80, !dbg !130            ; [#uses=1 type=float] [debug line = 47:4]
  %82 = load float* %b2, align 4, !dbg !130       ; [#uses=1 type=float] [debug line = 47:4]
  %83 = load i32* %i, align 4, !dbg !130          ; [#uses=1 type=i32] [debug line = 47:4]
  %84 = getelementptr inbounds %class.IIRFilter* %3, i32 0, i32 0, !dbg !130 ; [#uses=1 type=[5 x [3 x float]]*] [debug line = 47:4]
  %85 = getelementptr inbounds [5 x [3 x float]]* %84, i32 0, i32 %83, !dbg !130 ; [#uses=1 type=[3 x float]*] [debug line = 47:4]
  %86 = getelementptr inbounds [3 x float]* %85, i32 0, i32 2, !dbg !130 ; [#uses=1 type=float*] [debug line = 47:4]
  %87 = load float* %86, align 4, !dbg !130       ; [#uses=1 type=float] [debug line = 47:4]
  %88 = fmul float %82, %87, !dbg !130            ; [#uses=1 type=float] [debug line = 47:4]
  %89 = load float* %a0, align 4, !dbg !130       ; [#uses=1 type=float] [debug line = 47:4]
  %90 = fdiv float %88, %89, !dbg !130            ; [#uses=1 type=float] [debug line = 47:4]
  %91 = fadd float %81, %90, !dbg !130            ; [#uses=1 type=float] [debug line = 47:4]
  %92 = load float* %a1, align 4, !dbg !130       ; [#uses=1 type=float] [debug line = 47:4]
  %93 = load i32* %i, align 4, !dbg !130          ; [#uses=1 type=i32] [debug line = 47:4]
  %94 = getelementptr inbounds %class.IIRFilter* %3, i32 0, i32 1, !dbg !130 ; [#uses=1 type=[5 x [3 x float]]*] [debug line = 47:4]
  %95 = getelementptr inbounds [5 x [3 x float]]* %94, i32 0, i32 %93, !dbg !130 ; [#uses=1 type=[3 x float]*] [debug line = 47:4]
  %96 = getelementptr inbounds [3 x float]* %95, i32 0, i32 1, !dbg !130 ; [#uses=1 type=float*] [debug line = 47:4]
  %97 = load float* %96, align 4, !dbg !130       ; [#uses=1 type=float] [debug line = 47:4]
  %98 = fmul float %92, %97, !dbg !130            ; [#uses=1 type=float] [debug line = 47:4]
  %99 = load float* %a0, align 4, !dbg !130       ; [#uses=1 type=float] [debug line = 47:4]
  %100 = fdiv float %98, %99, !dbg !130           ; [#uses=1 type=float] [debug line = 47:4]
  %101 = fsub float %91, %100, !dbg !130          ; [#uses=1 type=float] [debug line = 47:4]
  %102 = load float* %a2, align 4, !dbg !130      ; [#uses=1 type=float] [debug line = 47:4]
  %103 = load i32* %i, align 4, !dbg !130         ; [#uses=1 type=i32] [debug line = 47:4]
  %104 = getelementptr inbounds %class.IIRFilter* %3, i32 0, i32 1, !dbg !130 ; [#uses=1 type=[5 x [3 x float]]*] [debug line = 47:4]
  %105 = getelementptr inbounds [5 x [3 x float]]* %104, i32 0, i32 %103, !dbg !130 ; [#uses=1 type=[3 x float]*] [debug line = 47:4]
  %106 = getelementptr inbounds [3 x float]* %105, i32 0, i32 2, !dbg !130 ; [#uses=1 type=float*] [debug line = 47:4]
  %107 = load float* %106, align 4, !dbg !130     ; [#uses=1 type=float] [debug line = 47:4]
  %108 = fmul float %102, %107, !dbg !130         ; [#uses=1 type=float] [debug line = 47:4]
  %109 = load float* %a0, align 4, !dbg !130      ; [#uses=1 type=float] [debug line = 47:4]
  %110 = fdiv float %108, %109, !dbg !130         ; [#uses=1 type=float] [debug line = 47:4]
  %111 = fsub float %101, %110, !dbg !130         ; [#uses=1 type=float] [debug line = 47:4]
  store float %111, float* %acc, align 4, !dbg !130 ; [debug line = 47:4]
  %112 = load float* %acc, align 4, !dbg !131     ; [#uses=1 type=float] [debug line = 48:4]
  %113 = load i32* %i, align 4, !dbg !131         ; [#uses=1 type=i32] [debug line = 48:4]
  %114 = getelementptr inbounds %class.IIRFilter* %3, i32 0, i32 1, !dbg !131 ; [#uses=1 type=[5 x [3 x float]]*] [debug line = 48:4]
  %115 = getelementptr inbounds [5 x [3 x float]]* %114, i32 0, i32 %113, !dbg !131 ; [#uses=1 type=[3 x float]*] [debug line = 48:4]
  %116 = getelementptr inbounds [3 x float]* %115, i32 0, i32 0, !dbg !131 ; [#uses=1 type=float*] [debug line = 48:4]
  store float %112, float* %116, align 4, !dbg !131 ; [debug line = 48:4]
  %117 = load i32* %i, align 4, !dbg !132         ; [#uses=1 type=i32] [debug line = 51:4]
  %118 = getelementptr inbounds %class.IIRFilter* %3, i32 0, i32 1, !dbg !132 ; [#uses=1 type=[5 x [3 x float]]*] [debug line = 51:4]
  %119 = getelementptr inbounds [5 x [3 x float]]* %118, i32 0, i32 %117, !dbg !132 ; [#uses=1 type=[3 x float]*] [debug line = 51:4]
  %120 = getelementptr inbounds [3 x float]* %119, i32 0, i32 1, !dbg !132 ; [#uses=1 type=float*] [debug line = 51:4]
  %121 = load float* %120, align 4, !dbg !132     ; [#uses=1 type=float] [debug line = 51:4]
  %122 = load i32* %i, align 4, !dbg !132         ; [#uses=1 type=i32] [debug line = 51:4]
  %123 = getelementptr inbounds %class.IIRFilter* %3, i32 0, i32 1, !dbg !132 ; [#uses=1 type=[5 x [3 x float]]*] [debug line = 51:4]
  %124 = getelementptr inbounds [5 x [3 x float]]* %123, i32 0, i32 %122, !dbg !132 ; [#uses=1 type=[3 x float]*] [debug line = 51:4]
  %125 = getelementptr inbounds [3 x float]* %124, i32 0, i32 2, !dbg !132 ; [#uses=1 type=float*] [debug line = 51:4]
  store float %121, float* %125, align 4, !dbg !132 ; [debug line = 51:4]
  %126 = load i32* %i, align 4, !dbg !133         ; [#uses=1 type=i32] [debug line = 52:4]
  %127 = getelementptr inbounds %class.IIRFilter* %3, i32 0, i32 1, !dbg !133 ; [#uses=1 type=[5 x [3 x float]]*] [debug line = 52:4]
  %128 = getelementptr inbounds [5 x [3 x float]]* %127, i32 0, i32 %126, !dbg !133 ; [#uses=1 type=[3 x float]*] [debug line = 52:4]
  %129 = getelementptr inbounds [3 x float]* %128, i32 0, i32 0, !dbg !133 ; [#uses=1 type=float*] [debug line = 52:4]
  %130 = load float* %129, align 4, !dbg !133     ; [#uses=1 type=float] [debug line = 52:4]
  %131 = load i32* %i, align 4, !dbg !133         ; [#uses=1 type=i32] [debug line = 52:4]
  %132 = getelementptr inbounds %class.IIRFilter* %3, i32 0, i32 1, !dbg !133 ; [#uses=1 type=[5 x [3 x float]]*] [debug line = 52:4]
  %133 = getelementptr inbounds [5 x [3 x float]]* %132, i32 0, i32 %131, !dbg !133 ; [#uses=1 type=[3 x float]*] [debug line = 52:4]
  %134 = getelementptr inbounds [3 x float]* %133, i32 0, i32 1, !dbg !133 ; [#uses=1 type=float*] [debug line = 52:4]
  store float %130, float* %134, align 4, !dbg !133 ; [debug line = 52:4]
  %135 = load i32* %i, align 4, !dbg !134         ; [#uses=1 type=i32] [debug line = 53:4]
  %136 = getelementptr inbounds %class.IIRFilter* %3, i32 0, i32 1, !dbg !134 ; [#uses=1 type=[5 x [3 x float]]*] [debug line = 53:4]
  %137 = getelementptr inbounds [5 x [3 x float]]* %136, i32 0, i32 %135, !dbg !134 ; [#uses=1 type=[3 x float]*] [debug line = 53:4]
  %138 = getelementptr inbounds [3 x float]* %137, i32 0, i32 0, !dbg !134 ; [#uses=1 type=float*] [debug line = 53:4]
  %139 = load float* %138, align 4, !dbg !134     ; [#uses=1 type=float] [debug line = 53:4]
  store float %139, float* %temp, align 4, !dbg !134 ; [debug line = 53:4]
  call void (...)* @_ssdm_RegionEnd(i8* getelementptr inbounds ([12 x i8]* @.str4, i32 0, i32 0)) nounwind, !dbg !135 ; [debug line = 54:3]
  br label %140, !dbg !135                        ; [debug line = 54:3]

; <label>:140                                     ; preds = %9
  %141 = load i32* %i, align 4, !dbg !136         ; [#uses=1 type=i32] [debug line = 34:40]
  %142 = add nsw i32 %141, 1, !dbg !136           ; [#uses=1 type=i32] [debug line = 34:40]
  store i32 %142, i32* %i, align 4, !dbg !136     ; [debug line = 34:40]
  br label %6, !dbg !136                          ; [debug line = 34:40]

; <label>:143                                     ; preds = %6
  %144 = load float* %temp, align 4, !dbg !137    ; [#uses=1 type=float] [debug line = 55:3]
  ret float %144, !dbg !137                       ; [debug line = 55:3]
}

; [#uses=1]
define linkonce_odr void @_ZN9IIRFilter9setCoeffsEPA6_f(%class.IIRFilter* %this, [6 x float]* %coefs) nounwind align 2 {
  %1 = alloca %class.IIRFilter*, align 4          ; [#uses=2 type=%class.IIRFilter**]
  %2 = alloca [6 x float]*, align 4               ; [#uses=3 type=[6 x float]**]
  %i = alloca i32, align 4                        ; [#uses=6 type=i32*]
  %j = alloca i32, align 4                        ; [#uses=6 type=i32*]
  store %class.IIRFilter* %this, %class.IIRFilter** %1, align 4
  call void @llvm.dbg.declare(metadata !{%class.IIRFilter** %1}, metadata !138), !dbg !139 ; [debug line = 24:7] [debug variable = this]
  store [6 x float]* %coefs, [6 x float]** %2, align 4
  call void @llvm.dbg.declare(metadata !{[6 x float]** %2}, metadata !140), !dbg !141 ; [debug line = 24:24] [debug variable = coefs]
  %3 = load %class.IIRFilter** %1                 ; [#uses=1 type=%class.IIRFilter*]
  %4 = load [6 x float]** %2, align 4, !dbg !142  ; [#uses=1 type=[6 x float]*] [debug line = 24:44]
  call void (...)* @_ssdm_SpecArrayDimSize([6 x float]* %4, i32 5) nounwind, !dbg !142 ; [debug line = 24:44]
  call void @llvm.dbg.declare(metadata !{i32* %i}, metadata !144), !dbg !146 ; [debug line = 25:11] [debug variable = i]
  store i32 0, i32* %i, align 4, !dbg !147        ; [debug line = 25:14]
  br label %5, !dbg !147                          ; [debug line = 25:14]

; <label>:5                                       ; preds = %29, %0
  %6 = load i32* %i, align 4, !dbg !147           ; [#uses=1 type=i32] [debug line = 25:14]
  %7 = icmp slt i32 %6, 5, !dbg !147              ; [#uses=1 type=i1] [debug line = 25:14]
  br i1 %7, label %8, label %32, !dbg !147        ; [debug line = 25:14]

; <label>:8                                       ; preds = %5
  br label %9, !dbg !148                          ; [debug line = 25:33]

; <label>:9                                       ; preds = %8
  call void @llvm.dbg.declare(metadata !{i32* %j}, metadata !150), !dbg !152 ; [debug line = 26:28] [debug variable = j]
  store i32 0, i32* %j, align 4, !dbg !153        ; [debug line = 26:31]
  br label %10, !dbg !153                         ; [debug line = 26:31]

; <label>:10                                      ; preds = %25, %9
  %11 = load i32* %j, align 4, !dbg !153          ; [#uses=1 type=i32] [debug line = 26:31]
  %12 = icmp slt i32 %11, 6, !dbg !153            ; [#uses=1 type=i1] [debug line = 26:31]
  br i1 %12, label %13, label %28, !dbg !153      ; [debug line = 26:31]

; <label>:13                                      ; preds = %10
  call void (...)* @_ssdm_op_SpecLoopName(i8* getelementptr inbounds ([15 x i8]* @.str3, i32 0, i32 0)) nounwind, !dbg !154 ; [debug line = 26:46]
  call void (...)* @_ssdm_RegionBegin(i8* getelementptr inbounds ([15 x i8]* @.str3, i32 0, i32 0)) nounwind, !dbg !154 ; [debug line = 26:46]
  %14 = load i32* %j, align 4, !dbg !156          ; [#uses=1 type=i32] [debug line = 27:5]
  %15 = load i32* %i, align 4, !dbg !156          ; [#uses=1 type=i32] [debug line = 27:5]
  %16 = load [6 x float]** %2, align 4, !dbg !156 ; [#uses=1 type=[6 x float]*] [debug line = 27:5]
  %17 = getelementptr inbounds [6 x float]* %16, i32 %15, !dbg !156 ; [#uses=1 type=[6 x float]*] [debug line = 27:5]
  %18 = getelementptr inbounds [6 x float]* %17, i32 0, i32 %14, !dbg !156 ; [#uses=1 type=float*] [debug line = 27:5]
  %19 = load float* %18, align 4, !dbg !156       ; [#uses=1 type=float] [debug line = 27:5]
  %20 = load i32* %j, align 4, !dbg !156          ; [#uses=1 type=i32] [debug line = 27:5]
  %21 = load i32* %i, align 4, !dbg !156          ; [#uses=1 type=i32] [debug line = 27:5]
  %22 = getelementptr inbounds %class.IIRFilter* %3, i32 0, i32 2, !dbg !156 ; [#uses=1 type=[5 x [6 x float]]*] [debug line = 27:5]
  %23 = getelementptr inbounds [5 x [6 x float]]* %22, i32 0, i32 %21, !dbg !156 ; [#uses=1 type=[6 x float]*] [debug line = 27:5]
  %24 = getelementptr inbounds [6 x float]* %23, i32 0, i32 %20, !dbg !156 ; [#uses=1 type=float*] [debug line = 27:5]
  store float %19, float* %24, align 4, !dbg !156 ; [debug line = 27:5]
  call void (...)* @_ssdm_RegionEnd(i8* getelementptr inbounds ([15 x i8]* @.str3, i32 0, i32 0)) nounwind, !dbg !157 ; [debug line = 28:4]
  br label %25, !dbg !157                         ; [debug line = 28:4]

; <label>:25                                      ; preds = %13
  %26 = load i32* %j, align 4, !dbg !158          ; [#uses=1 type=i32] [debug line = 26:40]
  %27 = add nsw i32 %26, 1, !dbg !158             ; [#uses=1 type=i32] [debug line = 26:40]
  store i32 %27, i32* %j, align 4, !dbg !158      ; [debug line = 26:40]
  br label %10, !dbg !158                         ; [debug line = 26:40]

; <label>:28                                      ; preds = %10
  br label %29, !dbg !159                         ; [debug line = 29:3]

; <label>:29                                      ; preds = %28
  %30 = load i32* %i, align 4, !dbg !160          ; [#uses=1 type=i32] [debug line = 25:28]
  %31 = add nsw i32 %30, 1, !dbg !160             ; [#uses=1 type=i32] [debug line = 25:28]
  store i32 %31, i32* %i, align 4, !dbg !160      ; [debug line = 25:28]
  br label %5, !dbg !160                          ; [debug line = 25:28]

; <label>:32                                      ; preds = %5
  ret void, !dbg !161                             ; [debug line = 30:2]
}

; [#uses=2]
declare void @_ssdm_op_SpecLoopName(...) nounwind

; [#uses=2]
declare void @_ssdm_RegionBegin(...) nounwind

; [#uses=2]
declare void @_ssdm_RegionEnd(...) nounwind

; [#uses=1]
define linkonce_odr void @_ZN9IIRFilterC2Ev(%class.IIRFilter* %this) unnamed_addr nounwind align 2 {
  %1 = alloca %class.IIRFilter*, align 4          ; [#uses=2 type=%class.IIRFilter**]
  %i = alloca i32, align 4                        ; [#uses=6 type=i32*]
  %j = alloca i32, align 4                        ; [#uses=6 type=i32*]
  %i1 = alloca i32, align 4                       ; [#uses=5 type=i32*]
  %j2 = alloca i32, align 4                       ; [#uses=5 type=i32*]
  store %class.IIRFilter* %this, %class.IIRFilter** %1, align 4
  call void @llvm.dbg.declare(metadata !{%class.IIRFilter** %1}, metadata !162), !dbg !163 ; [debug line = 13:2] [debug variable = this]
  %2 = load %class.IIRFilter** %1                 ; [#uses=3 type=%class.IIRFilter*]
  call void @llvm.dbg.declare(metadata !{i32* %i}, metadata !164), !dbg !167 ; [debug line = 14:12] [debug variable = i]
  store i32 0, i32* %i, align 4, !dbg !168        ; [debug line = 14:17]
  br label %3, !dbg !168                          ; [debug line = 14:17]

; <label>:3                                       ; preds = %25, %0
  %4 = load i32* %i, align 4, !dbg !168           ; [#uses=1 type=i32] [debug line = 14:17]
  %5 = icmp slt i32 %4, 5, !dbg !168              ; [#uses=1 type=i1] [debug line = 14:17]
  br i1 %5, label %6, label %28, !dbg !168        ; [debug line = 14:17]

; <label>:6                                       ; preds = %3
  call void @llvm.dbg.declare(metadata !{i32* %j}, metadata !169), !dbg !172 ; [debug line = 15:13] [debug variable = j]
  store i32 0, i32* %j, align 4, !dbg !173        ; [debug line = 15:18]
  br label %7, !dbg !173                          ; [debug line = 15:18]

; <label>:7                                       ; preds = %21, %6
  %8 = load i32* %j, align 4, !dbg !173           ; [#uses=1 type=i32] [debug line = 15:18]
  %9 = icmp slt i32 %8, 5, !dbg !173              ; [#uses=1 type=i1] [debug line = 15:18]
  br i1 %9, label %10, label %24, !dbg !173       ; [debug line = 15:18]

; <label>:10                                      ; preds = %7
  %11 = load i32* %j, align 4, !dbg !174          ; [#uses=1 type=i32] [debug line = 16:5]
  %12 = load i32* %i, align 4, !dbg !174          ; [#uses=1 type=i32] [debug line = 16:5]
  %13 = getelementptr inbounds %class.IIRFilter* %2, i32 0, i32 0, !dbg !174 ; [#uses=1 type=[5 x [3 x float]]*] [debug line = 16:5]
  %14 = getelementptr inbounds [5 x [3 x float]]* %13, i32 0, i32 %12, !dbg !174 ; [#uses=1 type=[3 x float]*] [debug line = 16:5]
  %15 = getelementptr inbounds [3 x float]* %14, i32 0, i32 %11, !dbg !174 ; [#uses=1 type=float*] [debug line = 16:5]
  store float 0.000000e+00, float* %15, align 4, !dbg !174 ; [debug line = 16:5]
  %16 = load i32* %j, align 4, !dbg !176          ; [#uses=1 type=i32] [debug line = 17:5]
  %17 = load i32* %i, align 4, !dbg !176          ; [#uses=1 type=i32] [debug line = 17:5]
  %18 = getelementptr inbounds %class.IIRFilter* %2, i32 0, i32 1, !dbg !176 ; [#uses=1 type=[5 x [3 x float]]*] [debug line = 17:5]
  %19 = getelementptr inbounds [5 x [3 x float]]* %18, i32 0, i32 %17, !dbg !176 ; [#uses=1 type=[3 x float]*] [debug line = 17:5]
  %20 = getelementptr inbounds [3 x float]* %19, i32 0, i32 %16, !dbg !176 ; [#uses=1 type=float*] [debug line = 17:5]
  store float 0.000000e+00, float* %20, align 4, !dbg !176 ; [debug line = 17:5]
  br label %21, !dbg !177                         ; [debug line = 18:4]

; <label>:21                                      ; preds = %10
  %22 = load i32* %j, align 4, !dbg !178          ; [#uses=1 type=i32] [debug line = 15:33]
  %23 = add nsw i32 %22, 1, !dbg !178             ; [#uses=1 type=i32] [debug line = 15:33]
  store i32 %23, i32* %j, align 4, !dbg !178      ; [debug line = 15:33]
  br label %7, !dbg !178                          ; [debug line = 15:33]

; <label>:24                                      ; preds = %7
  br label %25, !dbg !179                         ; [debug line = 19:3]

; <label>:25                                      ; preds = %24
  %26 = load i32* %i, align 4, !dbg !180          ; [#uses=1 type=i32] [debug line = 14:32]
  %27 = add nsw i32 %26, 1, !dbg !180             ; [#uses=1 type=i32] [debug line = 14:32]
  store i32 %27, i32* %i, align 4, !dbg !180      ; [debug line = 14:32]
  br label %3, !dbg !180                          ; [debug line = 14:32]

; <label>:28                                      ; preds = %3
  call void @llvm.dbg.declare(metadata !{i32* %i1}, metadata !181), !dbg !183 ; [debug line = 20:11] [debug variable = i]
  store i32 0, i32* %i1, align 4, !dbg !184       ; [debug line = 20:14]
  br label %29, !dbg !184                         ; [debug line = 20:14]

; <label>:29                                      ; preds = %46, %28
  %30 = load i32* %i1, align 4, !dbg !184         ; [#uses=1 type=i32] [debug line = 20:14]
  %31 = icmp slt i32 %30, 5, !dbg !184            ; [#uses=1 type=i1] [debug line = 20:14]
  br i1 %31, label %32, label %49, !dbg !184      ; [debug line = 20:14]

; <label>:32                                      ; preds = %29
  call void @llvm.dbg.declare(metadata !{i32* %j2}, metadata !185), !dbg !187 ; [debug line = 21:13] [debug variable = j]
  store i32 0, i32* %j2, align 4, !dbg !188       ; [debug line = 21:16]
  br label %33, !dbg !188                         ; [debug line = 21:16]

; <label>:33                                      ; preds = %42, %32
  %34 = load i32* %j2, align 4, !dbg !188         ; [#uses=1 type=i32] [debug line = 21:16]
  %35 = icmp slt i32 %34, 6, !dbg !188            ; [#uses=1 type=i1] [debug line = 21:16]
  br i1 %35, label %36, label %45, !dbg !188      ; [debug line = 21:16]

; <label>:36                                      ; preds = %33
  %37 = load i32* %j2, align 4, !dbg !189         ; [#uses=1 type=i32] [debug line = 22:5]
  %38 = load i32* %i1, align 4, !dbg !189         ; [#uses=1 type=i32] [debug line = 22:5]
  %39 = getelementptr inbounds %class.IIRFilter* %2, i32 0, i32 2, !dbg !189 ; [#uses=1 type=[5 x [6 x float]]*] [debug line = 22:5]
  %40 = getelementptr inbounds [5 x [6 x float]]* %39, i32 0, i32 %38, !dbg !189 ; [#uses=1 type=[6 x float]*] [debug line = 22:5]
  %41 = getelementptr inbounds [6 x float]* %40, i32 0, i32 %37, !dbg !189 ; [#uses=1 type=float*] [debug line = 22:5]
  store float 0.000000e+00, float* %41, align 4, !dbg !189 ; [debug line = 22:5]
  br label %42, !dbg !189                         ; [debug line = 22:5]

; <label>:42                                      ; preds = %36
  %43 = load i32* %j2, align 4, !dbg !190         ; [#uses=1 type=i32] [debug line = 21:25]
  %44 = add nsw i32 %43, 1, !dbg !190             ; [#uses=1 type=i32] [debug line = 21:25]
  store i32 %44, i32* %j2, align 4, !dbg !190     ; [debug line = 21:25]
  br label %33, !dbg !190                         ; [debug line = 21:25]

; <label>:45                                      ; preds = %33
  br label %46, !dbg !191                         ; [debug line = 22:24]

; <label>:46                                      ; preds = %45
  %47 = load i32* %i1, align 4, !dbg !192         ; [#uses=1 type=i32] [debug line = 20:28]
  %48 = add nsw i32 %47, 1, !dbg !192             ; [#uses=1 type=i32] [debug line = 20:28]
  store i32 %48, i32* %i1, align 4, !dbg !192     ; [debug line = 20:28]
  br label %29, !dbg !192                         ; [debug line = 20:28]

; <label>:49                                      ; preds = %29
  ret void, !dbg !193                             ; [debug line = 23:2]
}

!llvm.dbg.cu = !{!0}
!opencl.kernels = !{!48, !55, !61, !65, !71}
!hls.encrypted.func = !{}

!0 = metadata !{i32 786449, i32 0, i32 4, metadata !"C:/Users/marti/Documents/GitHub/Embedded-Systems-Course/project/equalizer/equalizer/.autopilot/db/iir.pragma.2.cpp", metadata !"C:\5CUsers\5Cmarti\5CDocuments\5CGitHub\5CEmbedded-Systems-Course\5Cproject", metadata !"clang version 3.1 ", i1 true, i1 false, metadata !"", i32 0, metadata !1, metadata !1, metadata !3, metadata !45} ; [ DW_TAG_compile_unit ]
!1 = metadata !{metadata !2}
!2 = metadata !{i32 0}
!3 = metadata !{metadata !4}
!4 = metadata !{metadata !5, metadata !19, metadata !42, metadata !43, metadata !44}
!5 = metadata !{i32 786478, i32 0, metadata !6, metadata !"equalizer", metadata !"equalizer", metadata !"_Z9equalizerPffiPA6_f", metadata !6, i32 3, metadata !7, i1 false, i1 true, i32 0, i32 0, null, i32 256, i1 false, void (float*, float, i32, [6 x float]*)* @_Z9equalizerPffiPA6_f, null, null, metadata !17, i32 3} ; [ DW_TAG_subprogram ]
!6 = metadata !{i32 786473, metadata !"equalizer/iir.cpp", metadata !"C:\5CUsers\5Cmarti\5CDocuments\5CGitHub\5CEmbedded-Systems-Course\5Cproject", null} ; [ DW_TAG_file_type ]
!7 = metadata !{i32 786453, i32 0, metadata !"", i32 0, i32 0, i64 0, i64 0, i64 0, i32 0, null, metadata !8, i32 0, i32 0} ; [ DW_TAG_subroutine_type ]
!8 = metadata !{null, metadata !9, metadata !10, metadata !12, metadata !13}
!9 = metadata !{i32 786447, null, metadata !"", null, i32 0, i64 32, i64 32, i64 0, i32 0, metadata !10} ; [ DW_TAG_pointer_type ]
!10 = metadata !{i32 786454, null, metadata !"data_t", metadata !6, i32 2, i64 0, i64 0, i64 0, i32 0, metadata !11} ; [ DW_TAG_typedef ]
!11 = metadata !{i32 786468, null, metadata !"float", null, i32 0, i64 32, i64 32, i64 0, i32 0, i32 4} ; [ DW_TAG_base_type ]
!12 = metadata !{i32 786468, null, metadata !"int", null, i32 0, i64 32, i64 32, i64 0, i32 0, i32 5} ; [ DW_TAG_base_type ]
!13 = metadata !{i32 786447, null, metadata !"", null, i32 0, i64 32, i64 32, i64 0, i32 0, metadata !14} ; [ DW_TAG_pointer_type ]
!14 = metadata !{i32 786433, null, metadata !"", null, i32 0, i64 192, i64 32, i32 0, i32 0, metadata !10, metadata !15, i32 0, i32 0} ; [ DW_TAG_array_type ]
!15 = metadata !{metadata !16}
!16 = metadata !{i32 786465, i64 0, i64 5}        ; [ DW_TAG_subrange_type ]
!17 = metadata !{metadata !18}
!18 = metadata !{i32 786468}                      ; [ DW_TAG_base_type ]
!19 = metadata !{i32 786478, i32 0, null, metadata !"setCoeffs", metadata !"setCoeffs", metadata !"_ZN9IIRFilter9setCoeffsEPA6_f", metadata !20, i32 24, metadata !21, i1 false, i1 true, i32 0, i32 0, null, i32 256, i1 false, void (%class.IIRFilter*, [6 x float]*)* @_ZN9IIRFilter9setCoeffsEPA6_f, null, metadata !38, metadata !17, i32 24} ; [ DW_TAG_subprogram ]
!20 = metadata !{i32 786473, metadata !"equalizer/iir.h", metadata !"C:\5CUsers\5Cmarti\5CDocuments\5CGitHub\5CEmbedded-Systems-Course\5Cproject", null} ; [ DW_TAG_file_type ]
!21 = metadata !{i32 786453, i32 0, metadata !"", i32 0, i32 0, i64 0, i64 0, i64 0, i32 0, null, metadata !22, i32 0, i32 0} ; [ DW_TAG_subroutine_type ]
!22 = metadata !{null, metadata !23, metadata !13}
!23 = metadata !{i32 786447, i32 0, metadata !"", i32 0, i32 0, i64 32, i64 32, i64 0, i32 64, metadata !24} ; [ DW_TAG_pointer_type ]
!24 = metadata !{i32 786434, null, metadata !"IIRFilter", metadata !20, i32 8, i64 1920, i64 32, i32 0, i32 0, null, metadata !25, i32 0, null, null} ; [ DW_TAG_class_type ]
!25 = metadata !{metadata !26, metadata !31, metadata !32, metadata !35, metadata !38, metadata !39}
!26 = metadata !{i32 786445, metadata !24, metadata !"x", metadata !20, i32 10, i64 480, i64 32, i64 0, i32 0, metadata !27} ; [ DW_TAG_member ]
!27 = metadata !{i32 786433, null, metadata !"", null, i32 0, i64 480, i64 32, i32 0, i32 0, metadata !10, metadata !28, i32 0, i32 0} ; [ DW_TAG_array_type ]
!28 = metadata !{metadata !29, metadata !30}
!29 = metadata !{i32 786465, i64 0, i64 4}        ; [ DW_TAG_subrange_type ]
!30 = metadata !{i32 786465, i64 0, i64 2}        ; [ DW_TAG_subrange_type ]
!31 = metadata !{i32 786445, metadata !24, metadata !"y", metadata !20, i32 11, i64 480, i64 32, i64 480, i32 0, metadata !27} ; [ DW_TAG_member ]
!32 = metadata !{i32 786445, metadata !24, metadata !"coeff_array", metadata !20, i32 12, i64 960, i64 32, i64 960, i32 0, metadata !33} ; [ DW_TAG_member ]
!33 = metadata !{i32 786433, null, metadata !"", null, i32 0, i64 960, i64 32, i32 0, i32 0, metadata !10, metadata !34, i32 0, i32 0} ; [ DW_TAG_array_type ]
!34 = metadata !{metadata !29, metadata !16}
!35 = metadata !{i32 786478, i32 0, metadata !24, metadata !"IIRFilter", metadata !"IIRFilter", metadata !"", metadata !20, i32 13, metadata !36, i1 false, i1 false, i32 0, i32 0, null, i32 256, i1 false, null, null, i32 0, metadata !17, i32 13} ; [ DW_TAG_subprogram ]
!36 = metadata !{i32 786453, i32 0, metadata !"", i32 0, i32 0, i64 0, i64 0, i64 0, i32 0, null, metadata !37, i32 0, i32 0} ; [ DW_TAG_subroutine_type ]
!37 = metadata !{null, metadata !23}
!38 = metadata !{i32 786478, i32 0, metadata !24, metadata !"setCoeffs", metadata !"setCoeffs", metadata !"_ZN9IIRFilter9setCoeffsEPA6_f", metadata !20, i32 24, metadata !21, i1 false, i1 false, i32 0, i32 0, null, i32 256, i1 false, null, null, i32 0, metadata !17, i32 24} ; [ DW_TAG_subprogram ]
!39 = metadata !{i32 786478, i32 0, metadata !24, metadata !"filter", metadata !"filter", metadata !"_ZN9IIRFilter6filterEf", metadata !20, i32 31, metadata !40, i1 false, i1 false, i32 0, i32 0, null, i32 256, i1 false, null, null, i32 0, metadata !17, i32 31} ; [ DW_TAG_subprogram ]
!40 = metadata !{i32 786453, i32 0, metadata !"", i32 0, i32 0, i64 0, i64 0, i64 0, i32 0, null, metadata !41, i32 0, i32 0} ; [ DW_TAG_subroutine_type ]
!41 = metadata !{metadata !10, metadata !23, metadata !10}
!42 = metadata !{i32 786478, i32 0, null, metadata !"filter", metadata !"filter", metadata !"_ZN9IIRFilter6filterEf", metadata !20, i32 31, metadata !40, i1 false, i1 true, i32 0, i32 0, null, i32 256, i1 false, float (%class.IIRFilter*, float)* @_ZN9IIRFilter6filterEf, null, metadata !39, metadata !17, i32 31} ; [ DW_TAG_subprogram ]
!43 = metadata !{i32 786478, i32 0, null, metadata !"IIRFilter", metadata !"IIRFilter", metadata !"_ZN9IIRFilterC1Ev", metadata !20, i32 13, metadata !36, i1 false, i1 true, i32 0, i32 0, null, i32 256, i1 false, void (%class.IIRFilter*)* @_ZN9IIRFilterC1Ev, null, metadata !35, metadata !17, i32 13} ; [ DW_TAG_subprogram ]
!44 = metadata !{i32 786478, i32 0, null, metadata !"IIRFilter", metadata !"IIRFilter", metadata !"_ZN9IIRFilterC2Ev", metadata !20, i32 13, metadata !36, i1 false, i1 true, i32 0, i32 0, null, i32 256, i1 false, void (%class.IIRFilter*)* @_ZN9IIRFilterC2Ev, null, metadata !35, metadata !17, i32 13} ; [ DW_TAG_subprogram ]
!45 = metadata !{metadata !46}
!46 = metadata !{metadata !47}
!47 = metadata !{i32 786484, i32 0, metadata !5, metadata !"iir", metadata !"iir", metadata !"", metadata !6, i32 4, metadata !24, i32 1, i32 1, %class.IIRFilter* @_ZZ9equalizerPffiPA6_fE3iir} ; [ DW_TAG_variable ]
!48 = metadata !{void (float*, float, i32, [6 x float]*)* @_Z9equalizerPffiPA6_f, metadata !49, metadata !50, metadata !51, metadata !52, metadata !53, metadata !54}
!49 = metadata !{metadata !"kernel_arg_addr_space", i32 1, i32 0, i32 0, i32 1}
!50 = metadata !{metadata !"kernel_arg_access_qual", metadata !"none", metadata !"none", metadata !"none", metadata !"none"}
!51 = metadata !{metadata !"kernel_arg_type", metadata !"data_t*", metadata !"data_t", metadata !"int", metadata !"data_t [6]*"}
!52 = metadata !{metadata !"kernel_arg_type_qual", metadata !"", metadata !"", metadata !"", metadata !""}
!53 = metadata !{metadata !"kernel_arg_name", metadata !"y", metadata !"x", metadata !"mode", metadata !"coeffs"}
!54 = metadata !{metadata !"reqd_work_group_size", i32 1, i32 1, i32 1}
!55 = metadata !{void (%class.IIRFilter*, [6 x float]*)* @_ZN9IIRFilter9setCoeffsEPA6_f, metadata !56, metadata !57, metadata !58, metadata !59, metadata !60, metadata !54}
!56 = metadata !{metadata !"kernel_arg_addr_space", i32 1}
!57 = metadata !{metadata !"kernel_arg_access_qual", metadata !"none"}
!58 = metadata !{metadata !"kernel_arg_type", metadata !"data_t [6]*"}
!59 = metadata !{metadata !"kernel_arg_type_qual", metadata !""}
!60 = metadata !{metadata !"kernel_arg_name", metadata !"coefs"}
!61 = metadata !{float (%class.IIRFilter*, float)* @_ZN9IIRFilter6filterEf, metadata !62, metadata !57, metadata !63, metadata !59, metadata !64, metadata !54}
!62 = metadata !{metadata !"kernel_arg_addr_space", i32 0}
!63 = metadata !{metadata !"kernel_arg_type", metadata !"data_t"}
!64 = metadata !{metadata !"kernel_arg_name", metadata !"input"}
!65 = metadata !{void (%class.IIRFilter*)* @_ZN9IIRFilterC1Ev, metadata !66, metadata !67, metadata !68, metadata !69, metadata !70, metadata !54}
!66 = metadata !{metadata !"kernel_arg_addr_space"}
!67 = metadata !{metadata !"kernel_arg_access_qual"}
!68 = metadata !{metadata !"kernel_arg_type"}
!69 = metadata !{metadata !"kernel_arg_type_qual"}
!70 = metadata !{metadata !"kernel_arg_name"}
!71 = metadata !{void (%class.IIRFilter*)* @_ZN9IIRFilterC2Ev, metadata !66, metadata !67, metadata !68, metadata !69, metadata !70, metadata !54}
!72 = metadata !{i32 786689, metadata !5, metadata !"y", metadata !6, i32 16777219, metadata !9, i32 0, i32 0} ; [ DW_TAG_arg_variable ]
!73 = metadata !{i32 3, i32 24, metadata !5, null}
!74 = metadata !{i32 786689, metadata !5, metadata !"x", metadata !6, i32 33554435, metadata !10, i32 0, i32 0} ; [ DW_TAG_arg_variable ]
!75 = metadata !{i32 3, i32 34, metadata !5, null}
!76 = metadata !{i32 786689, metadata !5, metadata !"mode", metadata !6, i32 50331651, metadata !12, i32 0, i32 0} ; [ DW_TAG_arg_variable ]
!77 = metadata !{i32 3, i32 41, metadata !5, null}
!78 = metadata !{i32 786689, metadata !5, metadata !"coeffs", metadata !6, i32 67108867, metadata !13, i32 0, i32 0} ; [ DW_TAG_arg_variable ]
!79 = metadata !{i32 3, i32 54, metadata !5, null}
!80 = metadata !{i32 3, i32 75, metadata !81, null}
!81 = metadata !{i32 786443, metadata !5, i32 3, i32 74, metadata !6, i32 0} ; [ DW_TAG_lexical_block ]
!82 = metadata !{i32 4, i32 1, metadata !81, null}
!83 = metadata !{i32 4, i32 23, metadata !81, null}
!84 = metadata !{i32 5, i32 3, metadata !81, null}
!85 = metadata !{i32 6, i32 9, metadata !81, null}
!86 = metadata !{i32 8, i32 4, metadata !87, null}
!87 = metadata !{i32 786443, metadata !81, i32 7, i32 8, metadata !6, i32 1} ; [ DW_TAG_lexical_block ]
!88 = metadata !{i32 10, i32 1, metadata !81, null}
!89 = metadata !{i32 786689, metadata !43, metadata !"this", metadata !20, i32 16777229, metadata !90, i32 64, i32 0} ; [ DW_TAG_arg_variable ]
!90 = metadata !{i32 786447, null, metadata !"", null, i32 0, i64 32, i64 32, i64 0, i32 0, metadata !24} ; [ DW_TAG_pointer_type ]
!91 = metadata !{i32 13, i32 2, metadata !43, null}
!92 = metadata !{i32 23, i32 2, metadata !43, null}
!93 = metadata !{i32 786689, metadata !42, metadata !"this", metadata !20, i32 16777247, metadata !90, i32 64, i32 0} ; [ DW_TAG_arg_variable ]
!94 = metadata !{i32 31, i32 9, metadata !42, null}
!95 = metadata !{i32 786689, metadata !42, metadata !"input", metadata !20, i32 33554463, metadata !10, i32 0, i32 0} ; [ DW_TAG_arg_variable ]
!96 = metadata !{i32 31, i32 23, metadata !42, null}
!97 = metadata !{i32 786688, metadata !98, metadata !"b0", metadata !20, i32 32, metadata !10, i32 0, i32 0} ; [ DW_TAG_auto_variable ]
!98 = metadata !{i32 786443, metadata !42, i32 31, i32 30, metadata !20, i32 7} ; [ DW_TAG_lexical_block ]
!99 = metadata !{i32 32, i32 10, metadata !98, null}
!100 = metadata !{i32 786688, metadata !98, metadata !"b1", metadata !20, i32 32, metadata !10, i32 0, i32 0} ; [ DW_TAG_auto_variable ]
!101 = metadata !{i32 32, i32 14, metadata !98, null}
!102 = metadata !{i32 786688, metadata !98, metadata !"b2", metadata !20, i32 32, metadata !10, i32 0, i32 0} ; [ DW_TAG_auto_variable ]
!103 = metadata !{i32 32, i32 18, metadata !98, null}
!104 = metadata !{i32 786688, metadata !98, metadata !"a1", metadata !20, i32 32, metadata !10, i32 0, i32 0} ; [ DW_TAG_auto_variable ]
!105 = metadata !{i32 32, i32 22, metadata !98, null}
!106 = metadata !{i32 786688, metadata !98, metadata !"a2", metadata !20, i32 32, metadata !10, i32 0, i32 0} ; [ DW_TAG_auto_variable ]
!107 = metadata !{i32 32, i32 26, metadata !98, null}
!108 = metadata !{i32 786688, metadata !98, metadata !"a0", metadata !20, i32 32, metadata !10, i32 0, i32 0} ; [ DW_TAG_auto_variable ]
!109 = metadata !{i32 32, i32 30, metadata !98, null}
!110 = metadata !{i32 786688, metadata !98, metadata !"temp", metadata !20, i32 32, metadata !10, i32 0, i32 0} ; [ DW_TAG_auto_variable ]
!111 = metadata !{i32 32, i32 34, metadata !98, null}
!112 = metadata !{i32 32, i32 51, metadata !98, null}
!113 = metadata !{i32 786688, metadata !98, metadata !"acc", metadata !20, i32 32, metadata !10, i32 0, i32 0} ; [ DW_TAG_auto_variable ]
!114 = metadata !{i32 32, i32 48, metadata !98, null}
!115 = metadata !{i32 786688, metadata !116, metadata !"i", metadata !20, i32 34, metadata !12, i32 0, i32 0} ; [ DW_TAG_auto_variable ]
!116 = metadata !{i32 786443, metadata !98, i32 34, i32 15, metadata !20, i32 8} ; [ DW_TAG_lexical_block ]
!117 = metadata !{i32 34, i32 23, metadata !116, null}
!118 = metadata !{i32 34, i32 26, metadata !116, null}
!119 = metadata !{i32 34, i32 45, metadata !120, null}
!120 = metadata !{i32 786443, metadata !116, i32 34, i32 44, metadata !20, i32 9} ; [ DW_TAG_lexical_block ]
!121 = metadata !{i32 36, i32 4, metadata !120, null}
!122 = metadata !{i32 37, i32 4, metadata !120, null}
!123 = metadata !{i32 38, i32 4, metadata !120, null}
!124 = metadata !{i32 39, i32 4, metadata !120, null}
!125 = metadata !{i32 40, i32 4, metadata !120, null}
!126 = metadata !{i32 41, i32 4, metadata !120, null}
!127 = metadata !{i32 43, i32 4, metadata !120, null}
!128 = metadata !{i32 44, i32 4, metadata !120, null}
!129 = metadata !{i32 45, i32 4, metadata !120, null}
!130 = metadata !{i32 47, i32 4, metadata !120, null}
!131 = metadata !{i32 48, i32 4, metadata !120, null}
!132 = metadata !{i32 51, i32 4, metadata !120, null}
!133 = metadata !{i32 52, i32 4, metadata !120, null}
!134 = metadata !{i32 53, i32 4, metadata !120, null}
!135 = metadata !{i32 54, i32 3, metadata !120, null}
!136 = metadata !{i32 34, i32 40, metadata !116, null}
!137 = metadata !{i32 55, i32 3, metadata !98, null}
!138 = metadata !{i32 786689, metadata !19, metadata !"this", metadata !20, i32 16777240, metadata !90, i32 64, i32 0} ; [ DW_TAG_arg_variable ]
!139 = metadata !{i32 24, i32 7, metadata !19, null}
!140 = metadata !{i32 786689, metadata !19, metadata !"coefs", metadata !20, i32 33554456, metadata !13, i32 0, i32 0} ; [ DW_TAG_arg_variable ]
!141 = metadata !{i32 24, i32 24, metadata !19, null}
!142 = metadata !{i32 24, i32 44, metadata !143, null}
!143 = metadata !{i32 786443, metadata !19, i32 24, i32 43, metadata !20, i32 2} ; [ DW_TAG_lexical_block ]
!144 = metadata !{i32 786688, metadata !145, metadata !"i", metadata !20, i32 25, metadata !12, i32 0, i32 0} ; [ DW_TAG_auto_variable ]
!145 = metadata !{i32 786443, metadata !143, i32 25, i32 3, metadata !20, i32 3} ; [ DW_TAG_lexical_block ]
!146 = metadata !{i32 25, i32 11, metadata !145, null}
!147 = metadata !{i32 25, i32 14, metadata !145, null}
!148 = metadata !{i32 25, i32 33, metadata !149, null}
!149 = metadata !{i32 786443, metadata !145, i32 25, i32 33, metadata !20, i32 4} ; [ DW_TAG_lexical_block ]
!150 = metadata !{i32 786688, metadata !151, metadata !"j", metadata !20, i32 26, metadata !12, i32 0, i32 0} ; [ DW_TAG_auto_variable ]
!151 = metadata !{i32 786443, metadata !149, i32 26, i32 19, metadata !20, i32 5} ; [ DW_TAG_lexical_block ]
!152 = metadata !{i32 26, i32 28, metadata !151, null}
!153 = metadata !{i32 26, i32 31, metadata !151, null}
!154 = metadata !{i32 26, i32 46, metadata !155, null}
!155 = metadata !{i32 786443, metadata !151, i32 26, i32 45, metadata !20, i32 6} ; [ DW_TAG_lexical_block ]
!156 = metadata !{i32 27, i32 5, metadata !155, null}
!157 = metadata !{i32 28, i32 4, metadata !155, null}
!158 = metadata !{i32 26, i32 40, metadata !151, null}
!159 = metadata !{i32 29, i32 3, metadata !149, null}
!160 = metadata !{i32 25, i32 28, metadata !145, null}
!161 = metadata !{i32 30, i32 2, metadata !143, null}
!162 = metadata !{i32 786689, metadata !44, metadata !"this", metadata !20, i32 16777229, metadata !90, i32 64, i32 0} ; [ DW_TAG_arg_variable ]
!163 = metadata !{i32 13, i32 2, metadata !44, null}
!164 = metadata !{i32 786688, metadata !165, metadata !"i", metadata !20, i32 14, metadata !12, i32 0, i32 0} ; [ DW_TAG_auto_variable ]
!165 = metadata !{i32 786443, metadata !166, i32 14, i32 3, metadata !20, i32 11} ; [ DW_TAG_lexical_block ]
!166 = metadata !{i32 786443, metadata !44, i32 13, i32 14, metadata !20, i32 10} ; [ DW_TAG_lexical_block ]
!167 = metadata !{i32 14, i32 12, metadata !165, null}
!168 = metadata !{i32 14, i32 17, metadata !165, null}
!169 = metadata !{i32 786688, metadata !170, metadata !"j", metadata !20, i32 15, metadata !12, i32 0, i32 0} ; [ DW_TAG_auto_variable ]
!170 = metadata !{i32 786443, metadata !171, i32 15, i32 4, metadata !20, i32 13} ; [ DW_TAG_lexical_block ]
!171 = metadata !{i32 786443, metadata !165, i32 14, i32 37, metadata !20, i32 12} ; [ DW_TAG_lexical_block ]
!172 = metadata !{i32 15, i32 13, metadata !170, null}
!173 = metadata !{i32 15, i32 18, metadata !170, null}
!174 = metadata !{i32 16, i32 5, metadata !175, null}
!175 = metadata !{i32 786443, metadata !170, i32 15, i32 38, metadata !20, i32 14} ; [ DW_TAG_lexical_block ]
!176 = metadata !{i32 17, i32 5, metadata !175, null}
!177 = metadata !{i32 18, i32 4, metadata !175, null}
!178 = metadata !{i32 15, i32 33, metadata !170, null}
!179 = metadata !{i32 19, i32 3, metadata !171, null}
!180 = metadata !{i32 14, i32 32, metadata !165, null}
!181 = metadata !{i32 786688, metadata !182, metadata !"i", metadata !20, i32 20, metadata !12, i32 0, i32 0} ; [ DW_TAG_auto_variable ]
!182 = metadata !{i32 786443, metadata !166, i32 20, i32 3, metadata !20, i32 15} ; [ DW_TAG_lexical_block ]
!183 = metadata !{i32 20, i32 11, metadata !182, null}
!184 = metadata !{i32 20, i32 14, metadata !182, null}
!185 = metadata !{i32 786688, metadata !186, metadata !"j", metadata !20, i32 21, metadata !12, i32 0, i32 0} ; [ DW_TAG_auto_variable ]
!186 = metadata !{i32 786443, metadata !182, i32 21, i32 4, metadata !20, i32 16} ; [ DW_TAG_lexical_block ]
!187 = metadata !{i32 21, i32 13, metadata !186, null}
!188 = metadata !{i32 21, i32 16, metadata !186, null}
!189 = metadata !{i32 22, i32 5, metadata !186, null}
!190 = metadata !{i32 21, i32 25, metadata !186, null}
!191 = metadata !{i32 22, i32 24, metadata !186, null}
!192 = metadata !{i32 20, i32 28, metadata !182, null}
!193 = metadata !{i32 23, i32 2, metadata !166, null}
